target datalayout = "e-m:e-p270:32:32-p271:32:32-p272:64:64-i64:64-f80:128-n8:16:32:64-S128"
target triple = "x86_64-pc-linux-gnu"

@.str = private unnamed_addr constant [3 x i8] c"%d\00", align 1
@.str.1 = private unnamed_addr constant [10 x i8] c"%lf%lf%lf\00", align 1
@.str.2 = private unnamed_addr constant [13 x i8] c"x1=x2=%.5lf\0A\00", align 1
@.str.3 = private unnamed_addr constant [19 x i8] c"x1=%.5lf;x2=%.5lf\0A\00", align 1
@.str.4 = private unnamed_addr constant [17 x i8] c"x1=%.5lf+%.5lfi;\00", align 1
@.str.5 = private unnamed_addr constant [17 x i8] c"x2=%.5lf-%.5lfi\0A\00", align 1

; Function Attrs: noinline nounwind uwtable
define dso_local void @main() #0 {
  %1 = alloca i32, align 4
  %2 = alloca i32, align 4
  %3 = alloca [100 x double], align 16
  %4 = alloca [100 x double], align 16
  %5 = alloca [100 x double], align 16
  %6 = alloca [100 x double], align 16
  %7 = alloca [100 x double], align 16
  %8 = alloca [100 x double], align 16
  %9 = alloca [100 x double], align 16
  %10 = alloca [100 x double], align 16
  %11 = call i32 (i8*, ...) @__isoc99_scanf(i8* getelementptr inbounds ([3 x i8], [3 x i8]* @.str, i64 0, i64 0), i32* %2)
  store i32 0, i32* %1, align 4
  br label %12

12:                                               ; preds = %51, %0
  %13 = load i32, i32* %1, align 4
  %14 = load i32, i32* %2, align 4
  %15 = sub nsw i32 %14, 1
  %16 = icmp sle i32 %13, %15
  br i1 %16, label %17, label %54

17:                                               ; preds = %12
  %18 = load i32, i32* %1, align 4
  %19 = sext i32 %18 to i64
  %20 = getelementptr inbounds [100 x double], [100 x double]* %3, i64 0, i64 %19
  %21 = load i32, i32* %1, align 4
  %22 = sext i32 %21 to i64
  %23 = getelementptr inbounds [100 x double], [100 x double]* %4, i64 0, i64 %22
  %24 = load i32, i32* %1, align 4
  %25 = sext i32 %24 to i64
  %26 = getelementptr inbounds [100 x double], [100 x double]* %5, i64 0, i64 %25
  %27 = call i32 (i8*, ...) @__isoc99_scanf(i8* getelementptr inbounds ([10 x i8], [10 x i8]* @.str.1, i64 0, i64 0), double* %20, double* %23, double* %26)
  %28 = load i32, i32* %1, align 4
  %29 = sext i32 %28 to i64
  %30 = getelementptr inbounds [100 x double], [100 x double]* %4, i64 0, i64 %29
  %31 = load double, double* %30, align 8
  %32 = load i32, i32* %1, align 4
  %33 = sext i32 %32 to i64
  %34 = getelementptr inbounds [100 x double], [100 x double]* %4, i64 0, i64 %33
  %35 = load double, double* %34, align 8
  %36 = fmul double %31, %35
  %37 = load i32, i32* %1, align 4
  %38 = sext i32 %37 to i64
  %39 = getelementptr inbounds [100 x double], [100 x double]* %3, i64 0, i64 %38
  %40 = load double, double* %39, align 8
  %41 = fmul double 4.000000e+00, %40
  %42 = load i32, i32* %1, align 4
  %43 = sext i32 %42 to i64
  %44 = getelementptr inbounds [100 x double], [100 x double]* %5, i64 0, i64 %43
  %45 = load double, double* %44, align 8
  %46 = fmul double %41, %45
  %47 = fsub double %36, %46
  %48 = load i32, i32* %1, align 4
  %49 = sext i32 %48 to i64
  %50 = getelementptr inbounds [100 x double], [100 x double]* %6, i64 0, i64 %49
  store double %47, double* %50, align 8
  br label %51

51:                                               ; preds = %17
  %52 = load i32, i32* %1, align 4
  %53 = add nsw i32 %52, 1
  store i32 %53, i32* %1, align 4
  br label %12

54:                                               ; preds = %12
  store i32 0, i32* %1, align 4
  br label %55

55:                                               ; preds = %314, %54
  %56 = load i32, i32* %1, align 4
  %57 = load i32, i32* %2, align 4
  %58 = sub nsw i32 %57, 1
  %59 = icmp sle i32 %56, %58
  br i1 %59, label %60, label %317

60:                                               ; preds = %55
  %61 = load i32, i32* %1, align 4
  %62 = sext i32 %61 to i64
  %63 = getelementptr inbounds [100 x double], [100 x double]* %6, i64 0, i64 %62
  %64 = load double, double* %63, align 8
  %65 = call double @llvm.fabs.f64(double %64)
  %66 = fcmp olt double %65, 0x3EB0C6F7A0B5ED8D
  br i1 %66, label %67, label %99

67:                                               ; preds = %60
  %68 = load i32, i32* %1, align 4
  %69 = sext i32 %68 to i64
  %70 = getelementptr inbounds [100 x double], [100 x double]* %4, i64 0, i64 %69
  %71 = load double, double* %70, align 8
  %72 = fcmp une double %71, 0.000000e+00
  br i1 %72, label %73, label %86

73:                                               ; preds = %67
  %74 = load i32, i32* %1, align 4
  %75 = sext i32 %74 to i64
  %76 = getelementptr inbounds [100 x double], [100 x double]* %4, i64 0, i64 %75
  %77 = load double, double* %76, align 8
  %78 = fneg double %77
  %79 = load i32, i32* %1, align 4
  %80 = sext i32 %79 to i64
  %81 = getelementptr inbounds [100 x double], [100 x double]* %3, i64 0, i64 %80
  %82 = load double, double* %81, align 8
  %83 = fmul double 2.000000e+00, %82
  %84 = fdiv double %78, %83
  %85 = call i32 (i8*, ...) @printf(i8* getelementptr inbounds ([13 x i8], [13 x i8]* @.str.2, i64 0, i64 0), double %84)
  br label %98

86:                                               ; preds = %67
  %87 = load i32, i32* %1, align 4
  %88 = sext i32 %87 to i64
  %89 = getelementptr inbounds [100 x double], [100 x double]* %4, i64 0, i64 %88
  %90 = load double, double* %89, align 8
  %91 = load i32, i32* %1, align 4
  %92 = sext i32 %91 to i64
  %93 = getelementptr inbounds [100 x double], [100 x double]* %3, i64 0, i64 %92
  %94 = load double, double* %93, align 8
  %95 = fmul double 2.000000e+00, %94
  %96 = fdiv double %90, %95
  %97 = call i32 (i8*, ...) @printf(i8* getelementptr inbounds ([13 x i8], [13 x i8]* @.str.2, i64 0, i64 0), double %96)
  br label %98

98:                                               ; preds = %86, %73
  br label %313

99:                                               ; preds = %60
  %100 = load i32, i32* %1, align 4
  %101 = sext i32 %100 to i64
  %102 = getelementptr inbounds [100 x double], [100 x double]* %6, i64 0, i64 %101
  %103 = load double, double* %102, align 8
  %104 = fcmp ogt double %103, 0x3EB0C6F7A0B5ED8D
  br i1 %104, label %105, label %210

105:                                              ; preds = %99
  %106 = load i32, i32* %1, align 4
  %107 = sext i32 %106 to i64
  %108 = getelementptr inbounds [100 x double], [100 x double]* %4, i64 0, i64 %107
  %109 = load double, double* %108, align 8
  %110 = fcmp une double %109, 0.000000e+00
  br i1 %110, label %111, label %161

111:                                              ; preds = %105
  %112 = load i32, i32* %1, align 4
  %113 = sext i32 %112 to i64
  %114 = getelementptr inbounds [100 x double], [100 x double]* %4, i64 0, i64 %113
  %115 = load double, double* %114, align 8
  %116 = fneg double %115
  %117 = load i32, i32* %1, align 4
  %118 = sext i32 %117 to i64
  %119 = getelementptr inbounds [100 x double], [100 x double]* %6, i64 0, i64 %118
  %120 = load double, double* %119, align 8
  %121 = call double @sqrt(double %120) #4
  %122 = fadd double %116, %121
  %123 = load i32, i32* %1, align 4
  %124 = sext i32 %123 to i64
  %125 = getelementptr inbounds [100 x double], [100 x double]* %3, i64 0, i64 %124
  %126 = load double, double* %125, align 8
  %127 = fmul double 2.000000e+00, %126
  %128 = fdiv double %122, %127
  %129 = load i32, i32* %1, align 4
  %130 = sext i32 %129 to i64
  %131 = getelementptr inbounds [100 x double], [100 x double]* %7, i64 0, i64 %130
  store double %128, double* %131, align 8
  %132 = load i32, i32* %1, align 4
  %133 = sext i32 %132 to i64
  %134 = getelementptr inbounds [100 x double], [100 x double]* %4, i64 0, i64 %133
  %135 = load double, double* %134, align 8
  %136 = fneg double %135
  %137 = load i32, i32* %1, align 4
  %138 = sext i32 %137 to i64
  %139 = getelementptr inbounds [100 x double], [100 x double]* %6, i64 0, i64 %138
  %140 = load double, double* %139, align 8
  %141 = call double @sqrt(double %140) #4
  %142 = fsub double %136, %141
  %143 = load i32, i32* %1, align 4
  %144 = sext i32 %143 to i64
  %145 = getelementptr inbounds [100 x double], [100 x double]* %3, i64 0, i64 %144
  %146 = load double, double* %145, align 8
  %147 = fmul double 2.000000e+00, %146
  %148 = fdiv double %142, %147
  %149 = load i32, i32* %1, align 4
  %150 = sext i32 %149 to i64
  %151 = getelementptr inbounds [100 x double], [100 x double]* %8, i64 0, i64 %150
  store double %148, double* %151, align 8
  %152 = load i32, i32* %1, align 4
  %153 = sext i32 %152 to i64
  %154 = getelementptr inbounds [100 x double], [100 x double]* %7, i64 0, i64 %153
  %155 = load double, double* %154, align 8
  %156 = load i32, i32* %1, align 4
  %157 = sext i32 %156 to i64
  %158 = getelementptr inbounds [100 x double], [100 x double]* %8, i64 0, i64 %157
  %159 = load double, double* %158, align 8
  %160 = call i32 (i8*, ...) @printf(i8* getelementptr inbounds ([19 x i8], [19 x i8]* @.str.3, i64 0, i64 0), double %155, double %159)
  br label %209

161:                                              ; preds = %105
  %162 = load i32, i32* %1, align 4
  %163 = sext i32 %162 to i64
  %164 = getelementptr inbounds [100 x double], [100 x double]* %4, i64 0, i64 %163
  %165 = load double, double* %164, align 8
  %166 = load i32, i32* %1, align 4
  %167 = sext i32 %166 to i64
  %168 = getelementptr inbounds [100 x double], [100 x double]* %6, i64 0, i64 %167
  %169 = load double, double* %168, align 8
  %170 = call double @sqrt(double %169) #4
  %171 = fadd double %165, %170
  %172 = load i32, i32* %1, align 4
  %173 = sext i32 %172 to i64
  %174 = getelementptr inbounds [100 x double], [100 x double]* %3, i64 0, i64 %173
  %175 = load double, double* %174, align 8
  %176 = fmul double 2.000000e+00, %175
  %177 = fdiv double %171, %176
  %178 = load i32, i32* %1, align 4
  %179 = sext i32 %178 to i64
  %180 = getelementptr inbounds [100 x double], [100 x double]* %7, i64 0, i64 %179
  store double %177, double* %180, align 8
  %181 = load i32, i32* %1, align 4
  %182 = sext i32 %181 to i64
  %183 = getelementptr inbounds [100 x double], [100 x double]* %4, i64 0, i64 %182
  %184 = load double, double* %183, align 8
  %185 = load i32, i32* %1, align 4
  %186 = sext i32 %185 to i64
  %187 = getelementptr inbounds [100 x double], [100 x double]* %6, i64 0, i64 %186
  %188 = load double, double* %187, align 8
  %189 = call double @sqrt(double %188) #4
  %190 = fsub double %184, %189
  %191 = load i32, i32* %1, align 4
  %192 = sext i32 %191 to i64
  %193 = getelementptr inbounds [100 x double], [100 x double]* %3, i64 0, i64 %192
  %194 = load double, double* %193, align 8
  %195 = fmul double 2.000000e+00, %194
  %196 = fdiv double %190, %195
  %197 = load i32, i32* %1, align 4
  %198 = sext i32 %197 to i64
  %199 = getelementptr inbounds [100 x double], [100 x double]* %8, i64 0, i64 %198
  store double %196, double* %199, align 8
  %200 = load i32, i32* %1, align 4
  %201 = sext i32 %200 to i64
  %202 = getelementptr inbounds [100 x double], [100 x double]* %7, i64 0, i64 %201
  %203 = load double, double* %202, align 8
  %204 = load i32, i32* %1, align 4
  %205 = sext i32 %204 to i64
  %206 = getelementptr inbounds [100 x double], [100 x double]* %8, i64 0, i64 %205
  %207 = load double, double* %206, align 8
  %208 = call i32 (i8*, ...) @printf(i8* getelementptr inbounds ([19 x i8], [19 x i8]* @.str.3, i64 0, i64 0), double %203, double %207)
  br label %209

209:                                              ; preds = %161, %111
  br label %312

210:                                              ; preds = %99
  %211 = load i32, i32* %1, align 4
  %212 = sext i32 %211 to i64
  %213 = getelementptr inbounds [100 x double], [100 x double]* %4, i64 0, i64 %212
  %214 = load double, double* %213, align 8
  %215 = fcmp une double %214, 0.000000e+00
  br i1 %215, label %216, label %264

216:                                              ; preds = %210
  %217 = load i32, i32* %1, align 4
  %218 = sext i32 %217 to i64
  %219 = getelementptr inbounds [100 x double], [100 x double]* %4, i64 0, i64 %218
  %220 = load double, double* %219, align 8
  %221 = fneg double %220
  %222 = load i32, i32* %1, align 4
  %223 = sext i32 %222 to i64
  %224 = getelementptr inbounds [100 x double], [100 x double]* %3, i64 0, i64 %223
  %225 = load double, double* %224, align 8
  %226 = fmul double 2.000000e+00, %225
  %227 = fdiv double %221, %226
  %228 = load i32, i32* %1, align 4
  %229 = sext i32 %228 to i64
  %230 = getelementptr inbounds [100 x double], [100 x double]* %9, i64 0, i64 %229
  store double %227, double* %230, align 8
  %231 = load i32, i32* %1, align 4
  %232 = sext i32 %231 to i64
  %233 = getelementptr inbounds [100 x double], [100 x double]* %6, i64 0, i64 %232
  %234 = load double, double* %233, align 8
  %235 = fneg double %234
  %236 = call double @sqrt(double %235) #4
  %237 = load i32, i32* %1, align 4
  %238 = sext i32 %237 to i64
  %239 = getelementptr inbounds [100 x double], [100 x double]* %3, i64 0, i64 %238
  %240 = load double, double* %239, align 8
  %241 = fmul double 2.000000e+00, %240
  %242 = fdiv double %236, %241
  %243 = load i32, i32* %1, align 4
  %244 = sext i32 %243 to i64
  %245 = getelementptr inbounds [100 x double], [100 x double]* %10, i64 0, i64 %244
  store double %242, double* %245, align 8
  %246 = load i32, i32* %1, align 4
  %247 = sext i32 %246 to i64
  %248 = getelementptr inbounds [100 x double], [100 x double]* %9, i64 0, i64 %247
  %249 = load double, double* %248, align 8
  %250 = load i32, i32* %1, align 4
  %251 = sext i32 %250 to i64
  %252 = getelementptr inbounds [100 x double], [100 x double]* %10, i64 0, i64 %251
  %253 = load double, double* %252, align 8
  %254 = call i32 (i8*, ...) @printf(i8* getelementptr inbounds ([17 x i8], [17 x i8]* @.str.4, i64 0, i64 0), double %249, double %253)
  %255 = load i32, i32* %1, align 4
  %256 = sext i32 %255 to i64
  %257 = getelementptr inbounds [100 x double], [100 x double]* %9, i64 0, i64 %256
  %258 = load double, double* %257, align 8
  %259 = load i32, i32* %1, align 4
  %260 = sext i32 %259 to i64
  %261 = getelementptr inbounds [100 x double], [100 x double]* %10, i64 0, i64 %260
  %262 = load double, double* %261, align 8
  %263 = call i32 (i8*, ...) @printf(i8* getelementptr inbounds ([17 x i8], [17 x i8]* @.str.5, i64 0, i64 0), double %258, double %262)
  br label %311

264:                                              ; preds = %210
  %265 = load i32, i32* %1, align 4
  %266 = sext i32 %265 to i64
  %267 = getelementptr inbounds [100 x double], [100 x double]* %4, i64 0, i64 %266
  %268 = load double, double* %267, align 8
  %269 = load i32, i32* %1, align 4
  %270 = sext i32 %269 to i64
  %271 = getelementptr inbounds [100 x double], [100 x double]* %3, i64 0, i64 %270
  %272 = load double, double* %271, align 8
  %273 = fmul double 2.000000e+00, %272
  %274 = fdiv double %268, %273
  %275 = load i32, i32* %1, align 4
  %276 = sext i32 %275 to i64
  %277 = getelementptr inbounds [100 x double], [100 x double]* %9, i64 0, i64 %276
  store double %274, double* %277, align 8
  %278 = load i32, i32* %1, align 4
  %279 = sext i32 %278 to i64
  %280 = getelementptr inbounds [100 x double], [100 x double]* %6, i64 0, i64 %279
  %281 = load double, double* %280, align 8
  %282 = fneg double %281
  %283 = call double @sqrt(double %282) #4
  %284 = load i32, i32* %1, align 4
  %285 = sext i32 %284 to i64
  %286 = getelementptr inbounds [100 x double], [100 x double]* %3, i64 0, i64 %285
  %287 = load double, double* %286, align 8
  %288 = fmul double 2.000000e+00, %287
  %289 = fdiv double %283, %288
  %290 = load i32, i32* %1, align 4
  %291 = sext i32 %290 to i64
  %292 = getelementptr inbounds [100 x double], [100 x double]* %10, i64 0, i64 %291
  store double %289, double* %292, align 8
  %293 = load i32, i32* %1, align 4
  %294 = sext i32 %293 to i64
  %295 = getelementptr inbounds [100 x double], [100 x double]* %9, i64 0, i64 %294
  %296 = load double, double* %295, align 8
  %297 = load i32, i32* %1, align 4
  %298 = sext i32 %297 to i64
  %299 = getelementptr inbounds [100 x double], [100 x double]* %10, i64 0, i64 %298
  %300 = load double, double* %299, align 8
  %301 = call i32 (i8*, ...) @printf(i8* getelementptr inbounds ([17 x i8], [17 x i8]* @.str.4, i64 0, i64 0), double %296, double %300)
  %302 = load i32, i32* %1, align 4
  %303 = sext i32 %302 to i64
  %304 = getelementptr inbounds [100 x double], [100 x double]* %9, i64 0, i64 %303
  %305 = load double, double* %304, align 8
  %306 = load i32, i32* %1, align 4
  %307 = sext i32 %306 to i64
  %308 = getelementptr inbounds [100 x double], [100 x double]* %10, i64 0, i64 %307
  %309 = load double, double* %308, align 8
  %310 = call i32 (i8*, ...) @printf(i8* getelementptr inbounds ([17 x i8], [17 x i8]* @.str.5, i64 0, i64 0), double %305, double %309)
  br label %311

311:                                              ; preds = %264, %216
  br label %312

312:                                              ; preds = %311, %209
  br label %313

313:                                              ; preds = %312, %98
  br label %314

314:                                              ; preds = %313
  %315 = load i32, i32* %1, align 4
  %316 = add nsw i32 %315, 1
  store i32 %316, i32* %1, align 4
  br label %55

317:                                              ; preds = %55
  ret void
}